target datalayout = "e-m:e-p270:32:32-p271:32:32-p272:64:64-i64:64-i128:128-f80:128-n8:16:32:64-S128"
target triple = "x86_64-pc-linux-gnu"

%struct.Abc_TgMan_t_ = type { ptr, i32, i32, i32, i32, i32, [16 x i8], [16 x i8], [16 x i8], [16 x i8], [16 x %struct.TiedGroup_], [16 x i8], [17 x i8], i32, [16 x i8], ptr }
%struct.TiedGroup_ = type { i8, i8 }

; Function Attrs: nounwind uwtable
define i32 @Abc_TgExpendSymmetry(ptr noundef %0, ptr noundef %1) #0 {
  %3 = alloca ptr, align 8
  %4 = alloca ptr, align 8
  %5 = alloca i32, align 4
  %6 = alloca i32, align 4
  %7 = alloca i32, align 4
  %8 = alloca i32, align 4
  %9 = alloca ptr, align 8
  store ptr %0, ptr %3, align 8, !tbaa !116
  store ptr %1, ptr %4, align 8, !tbaa !49
  call void @llvm.lifetime.start.p0(i64 4, ptr %5) #12
  store i32 0, ptr %5, align 4, !tbaa !8
  call void @llvm.lifetime.start.p0(i64 4, ptr %6) #12
  call void @llvm.lifetime.start.p0(i64 4, ptr %7) #12
  call void @llvm.lifetime.start.p0(i64 4, ptr %8) #12
  call void @llvm.lifetime.start.p0(i64 8, ptr %9) #12
  %10 = load ptr, ptr %3, align 8, !tbaa !116
  %11 = getelementptr inbounds nuw %struct.Abc_TgMan_t_, ptr %10, i32 0, i32 6
  %12 = getelementptr inbounds [16 x i8], ptr %11, i64 0, i64 0
  store ptr %12, ptr %9, align 8, !tbaa !49
  store i32 0, ptr %6, align 4, !tbaa !8
  br label %13

13:                                               ; preds = %46, %2
  %14 = load i32, ptr %6, align 4, !tbaa !8
  %15 = load ptr, ptr %3, align 8, !tbaa !116
  %16 = getelementptr inbounds nuw %struct.Abc_TgMan_t_, ptr %15, i32 0, i32 2
  %17 = load i32, ptr %16, align 4, !tbaa !118
  %18 = icmp slt i32 %14, %17
  br i1 %18, label %19, label %49

19:                                               ; preds = %13
  %20 = load ptr, ptr %9, align 8, !tbaa !49
  %21 = load i32, ptr %6, align 4, !tbaa !8
  %22 = sext i32 %21 to i64
  %23 = getelementptr inbounds i8, ptr %20, i64 %22
  %24 = load i8, ptr %23, align 1, !tbaa !51
  %25 = sext i8 %24 to i32
  store i32 %25, ptr %7, align 4, !tbaa !8
  br label %26

26:                                               ; preds = %37, %19
  %27 = load i32, ptr %7, align 4, !tbaa !8
  %28 = icmp sge i32 %27, 0
  br i1 %28, label %29, label %45

29:                                               ; preds = %26
  %30 = load i32, ptr %7, align 4, !tbaa !8
  %31 = trunc i32 %30 to i8
  %32 = load ptr, ptr %4, align 8, !tbaa !49
  %33 = load i32, ptr %5, align 4, !tbaa !8
  %34 = add nsw i32 %33, 1
  store i32 %34, ptr %5, align 4, !tbaa !8
  %35 = sext i32 %33 to i64
  %36 = getelementptr inbounds i8, ptr %32, i64 %35
  store i8 %31, ptr %36, align 1, !tbaa !51
  br label %37

37:                                               ; preds = %29
  %38 = load ptr, ptr %3, align 8, !tbaa !116
  %39 = getelementptr inbounds nuw %struct.Abc_TgMan_t_, ptr %38, i32 0, i32 12
  %40 = load i32, ptr %7, align 4, !tbaa !8
  %41 = sext i32 %40 to i64
  %42 = getelementptr inbounds [17 x i8], ptr %39, i64 0, i64 %41
  %43 = load i8, ptr %42, align 1, !tbaa !51
  %44 = sext i8 %43 to i32
  store i32 %44, ptr %7, align 4, !tbaa !8
  br label %26, !llvm.loop !120

45:                                               ; preds = %26
  br label %46

46:                                               ; preds = %45
  %47 = load i32, ptr %6, align 4, !tbaa !8
  %48 = add nsw i32 %47, 1
  store i32 %48, ptr %6, align 4, !tbaa !8
  br label %13, !llvm.loop !121

49:                                               ; preds = %13
  %50 = load i32, ptr %5, align 4, !tbaa !8
  store i32 %50, ptr %8, align 4, !tbaa !8
  %51 = load ptr, ptr %3, align 8, !tbaa !116
  %52 = getelementptr inbounds nuw %struct.Abc_TgMan_t_, ptr %51, i32 0, i32 12
  %53 = load ptr, ptr %3, align 8, !tbaa !116
  %54 = getelementptr inbounds nuw %struct.Abc_TgMan_t_, ptr %53, i32 0, i32 1
  %55 = load i32, ptr %54, align 8, !tbaa !122
  %56 = sext i32 %55 to i64
  %57 = getelementptr inbounds [17 x i8], ptr %52, i64 0, i64 %56
  %58 = load i8, ptr %57, align 1, !tbaa !51
  %59 = sext i8 %58 to i32
  store i32 %59, ptr %7, align 4, !tbaa !8
  br label %60

60:                                               ; preds = %71, %49
  %61 = load i32, ptr %7, align 4, !tbaa !8
  %62 = icmp sge i32 %61, 0
  br i1 %62, label %63, label %79

63:                                               ; preds = %60
  %64 = load i32, ptr %7, align 4, !tbaa !8
  %65 = trunc i32 %64 to i8
  %66 = load ptr, ptr %4, align 8, !tbaa !49
  %67 = load i32, ptr %5, align 4, !tbaa !8
  %68 = add nsw i32 %67, 1
  store i32 %68, ptr %5, align 4, !tbaa !8
  %69 = sext i32 %67 to i64
  %70 = getelementptr inbounds i8, ptr %66, i64 %69
  store i8 %65, ptr %70, align 1, !tbaa !51
  br label %71

71:                                               ; preds = %63
  %72 = load ptr, ptr %3, align 8, !tbaa !116
  %73 = getelementptr inbounds nuw %struct.Abc_TgMan_t_, ptr %72, i32 0, i32 12
  %74 = load i32, ptr %7, align 4, !tbaa !8
  %75 = sext i32 %74 to i64
  %76 = getelementptr inbounds [17 x i8], ptr %73, i64 0, i64 %75
  %77 = load i8, ptr %76, align 1, !tbaa !51
  %78 = sext i8 %77 to i32
  store i32 %78, ptr %7, align 4, !tbaa !8
  br label %60, !llvm.loop !123

79:                                               ; preds = %60
  %80 = load i32, ptr %8, align 4, !tbaa !8
  call void @llvm.lifetime.end.p0(i64 8, ptr %9) #12
  call void @llvm.lifetime.end.p0(i64 4, ptr %8) #12
  call void @llvm.lifetime.end.p0(i64 4, ptr %7) #12
  call void @llvm.lifetime.end.p0(i64 4, ptr %6) #12
  call void @llvm.lifetime.end.p0(i64 4, ptr %5) #12
  ret i32 %80
}