; Function Attrs: nofree norecurse nosync nounwind memory(argmem: readwrite) uwtable
define i32 @Abc_TgExpendSymmetry(ptr noundef readonly captures(none) %0, ptr noundef writeonly captures(none) %1) local_unnamed_addr #0 {
  %3 = getelementptr inbounds nuw i8, ptr %0, i64 28
  %4 = getelementptr inbounds nuw i8, ptr %0, i64 12
  %5 = load i32, ptr %4, align 4, !tbaa !111
  %6 = icmp sgt i32 %5, 0
  br i1 %6, label %.lr.ph30, label %._crit_edge31

.lr.ph30:                                         ; preds = %2
  %7 = getelementptr inbounds nuw i8, ptr %0, i64 140
  br label %8

8:                                                ; preds = %.lr.ph30, %._crit_edge
  %9 = phi i32 [ %5, %.lr.ph30 ], [ %18, %._crit_edge ]
  %indvars.iv40 = phi i64 [ 0, %.lr.ph30 ], [ %indvars.iv.next41, %._crit_edge ]
  %.028 = phi i32 [ 0, %.lr.ph30 ], [ %.1.lcssa, %._crit_edge ]
  %10 = getelementptr inbounds nuw i8, ptr %3, i64 %indvars.iv40
  %.022.in24 = load i8, ptr %10, align 1, !tbaa !43
  %11 = icmp sgt i8 %.022.in24, -1
  br i1 %11, label %.lr.ph.preheader, label %._crit_edge

.lr.ph.preheader:                                 ; preds = %8
  %12 = sext i32 %.028 to i64
  br label %.lr.ph

.lr.ph:                                           ; preds = %.lr.ph.preheader, %.lr.ph
  %indvars.iv = phi i64 [ %12, %.lr.ph.preheader ], [ %indvars.iv.next, %.lr.ph ]
  %.022.in26 = phi i8 [ %.022.in24, %.lr.ph.preheader ], [ %.022.in, %.lr.ph ]
  %indvars.iv.next = add nsw i64 %indvars.iv, 1
  %13 = getelementptr inbounds i8, ptr %1, i64 %indvars.iv
  store i8 %.022.in26, ptr %13, align 1, !tbaa !43
  %14 = zext nneg i8 %.022.in26 to i64
  %15 = getelementptr inbounds nuw [17 x i8], ptr %7, i64 0, i64 %14
  %.022.in = load i8, ptr %15, align 1, !tbaa !43
  %16 = icmp sgt i8 %.022.in, -1
  br i1 %16, label %.lr.ph, label %._crit_edge.loopexit, !llvm.loop !113

._crit_edge.loopexit:                             ; preds = %.lr.ph
  %17 = trunc nsw i64 %indvars.iv.next to i32
  %.pre = load i32, ptr %4, align 4, !tbaa !111
  br label %._crit_edge

._crit_edge:                                      ; preds = %._crit_edge.loopexit, %8
  %18 = phi i32 [ %9, %8 ], [ %.pre, %._crit_edge.loopexit ]
  %.1.lcssa = phi i32 [ %.028, %8 ], [ %17, %._crit_edge.loopexit ]
  %indvars.iv.next41 = add nuw nsw i64 %indvars.iv40, 1
  %19 = sext i32 %18 to i64
  %20 = icmp slt i64 %indvars.iv.next41, %19
  br i1 %20, label %8, label %._crit_edge31, !llvm.loop !114

._crit_edge31:                                    ; preds = %._crit_edge, %2
  %.0.lcssa = phi i32 [ 0, %2 ], [ %.1.lcssa, %._crit_edge ]
  %21 = getelementptr inbounds nuw i8, ptr %0, i64 140
  %22 = getelementptr inbounds nuw i8, ptr %0, i64 8
  %23 = load i32, ptr %22, align 8, !tbaa !115
  %24 = sext i32 %23 to i64
  %.123.in.in33 = getelementptr inbounds [17 x i8], ptr %21, i64 0, i64 %24
  %.123.in34 = load i8, ptr %.123.in.in33, align 1, !tbaa !43
  %25 = icmp sgt i8 %.123.in34, -1
  br i1 %25, label %.lr.ph38.preheader, label %._crit_edge39

.lr.ph38.preheader:                               ; preds = %._crit_edge31
  %26 = sext i32 %.0.lcssa to i64
  br label %.lr.ph38

.lr.ph38:                                         ; preds = %.lr.ph38.preheader, %.lr.ph38
  %indvars.iv43 = phi i64 [ %26, %.lr.ph38.preheader ], [ %indvars.iv.next44, %.lr.ph38 ]
  %.123.in36 = phi i8 [ %.123.in34, %.lr.ph38.preheader ], [ %.123.in, %.lr.ph38 ]
  %indvars.iv.next44 = add nsw i64 %indvars.iv43, 1
  %27 = getelementptr inbounds i8, ptr %1, i64 %indvars.iv43
  store i8 %.123.in36, ptr %27, align 1, !tbaa !43
  %28 = zext nneg i8 %.123.in36 to i64
  %.123.in.in = getelementptr inbounds nuw [17 x i8], ptr %21, i64 0, i64 %28
  %.123.in = load i8, ptr %.123.in.in, align 1, !tbaa !43
  %29 = icmp sgt i8 %.123.in, -1
  br i1 %29, label %.lr.ph38, label %._crit_edge39, !llvm.loop !116

._crit_edge39:                                    ; preds = %.lr.ph38, %._crit_edge31
  ret i32 %.0.lcssa
}